target datalayout = "e-m:e-p270:32:32-p271:32:32-p272:64:64-i64:64-i128:128-f80:128-n8:16:32:64-S128"
target triple = "x86_64-pc-linux-gnu"

%struct.slurm_conf_t = type { i64, ptr, i16, ptr, ptr, ptr, ptr, ptr, i16, ptr, ptr, ptr, ptr, ptr, ptr, ptr, i16, ptr, ptr, ptr, ptr, i16, ptr, ptr, ptr, i64, ptr, ptr, ptr, ptr, i16, ptr, ptr, i16, i32, ptr, i32, ptr, i32, i32, ptr, ptr, i64, i64, ptr, i16, i16, ptr, i32, i32, ptr, i32, ptr, i32, i16, i16, i16, ptr, i16, i16, ptr, ptr, i32, i16, i16, ptr, i32, i16, ptr, ptr, ptr, ptr, i16, ptr, ptr, ptr, ptr, i32, ptr, ptr, ptr, ptr, i16, i16, ptr, i32, i32, i32, i16, i16, ptr, ptr, i16, ptr, ptr, i32, i32, i32, i32, i32, i64, i32, i32, i16, ptr, ptr, i32, ptr, ptr, ptr, i16, i32, ptr, ptr, i16, ptr, ptr, i32, i16, ptr, ptr, ptr, ptr, i32, i32, i16, i16, i32, ptr, i16, ptr, i32, i32, i32, i32, i32, i32, ptr, i16, ptr, ptr, i32, i16, ptr, i32, i16, i16, ptr, ptr, ptr, i16, ptr, ptr, ptr, ptr, i16, i16, ptr, i16, ptr, i16, ptr, i16, ptr, i16, ptr, ptr, ptr, ptr, i16, ptr, ptr, ptr, i32, ptr, i32, ptr, ptr, i16, ptr, ptr, i32, i16, ptr, ptr, i16, i16, ptr, i16, ptr, ptr, ptr, i32, ptr, i16, i16, ptr, ptr, ptr, ptr, ptr, ptr, ptr, ptr, i16, i32, i16, ptr, ptr, ptr, ptr, i32, ptr, ptr, ptr, i16, ptr, ptr, ptr, i16, ptr, i16, ptr, i16, i16, ptr }
%struct.xcgroup_t = type { ptr, ptr, ptr, i32, i32, i32 }

@plugin_type = external constant [0 x i8], align 1
@slurm_conf = dso_local global %struct.slurm_conf_t zeroinitializer, align 8
@.str.17 = private unnamed_addr constant [48 x i8] c"%s: %s: CGROUP: no content given, nothing to do\00", align 1
@__func__.common_cgroup_set_param = private unnamed_addr constant [24 x i8] c"common_cgroup_set_param\00", align 1
@.str.18 = private unnamed_addr constant [6 x i8] c"%s/%s\00", align 1
@.str.19 = private unnamed_addr constant [74 x i8] c"%s: %s: CGROUP: unable to build filepath for '%s' and parameter '%s' : %m\00", align 1
@.str.20 = private unnamed_addr constant [62 x i8] c"%s: %s: CGROUP: unable to set parameter '%s' to '%s' for '%s'\00", align 1
@.str.21 = private unnamed_addr constant [48 x i8] c"%s: %s: %s: parameter '%s' set to '%s' for '%s'\00", align 1

; Function Attrs: nounwind uwtable
define dso_local i32 @common_cgroup_set_param(ptr noundef %0, ptr noundef %1, ptr noundef %2) #0 {
  %4 = alloca i32, align 4
  %5 = alloca ptr, align 8
  %6 = alloca ptr, align 8
  %7 = alloca ptr, align 8
  %8 = alloca i32, align 4
  %9 = alloca [4096 x i8], align 16
  %10 = alloca ptr, align 8
  %11 = alloca i32, align 4
  store ptr %0, ptr %5, align 8
  store ptr %1, ptr %6, align 8
  store ptr %2, ptr %7, align 8
  call void @llvm.lifetime.start.p0(i64 4, ptr %8) #6
  store i32 -1, ptr %8, align 4
  call void @llvm.lifetime.start.p0(i64 4096, ptr %9) #6
  call void @llvm.lifetime.start.p0(i64 8, ptr %10) #6
  %12 = load ptr, ptr %5, align 8
  %13 = getelementptr inbounds nuw %struct.xcgroup_t, ptr %12, i32 0, i32 2
  %14 = load ptr, ptr %13, align 8
  store ptr %14, ptr %10, align 8
  %15 = load ptr, ptr %10, align 8
  %16 = icmp ne ptr %15, null
  br i1 %16, label %17, label %20

17:                                               ; preds = %3
  %18 = load ptr, ptr %6, align 8
  %19 = icmp ne ptr %18, null
  br i1 %19, label %22, label %20

20:                                               ; preds = %17, %3
  %21 = load i32, ptr %8, align 4
  store i32 %21, ptr %4, align 4
  store i32 1, ptr %11, align 4
  br label %110

22:                                               ; preds = %17
  %23 = load ptr, ptr %7, align 8
  %24 = icmp ne ptr %23, null
  br i1 %24, label %42, label %25

25:                                               ; preds = %22
  br label %26

26:                                               ; preds = %25
  %27 = load i64, ptr getelementptr inbounds nuw (%struct.slurm_conf_t, ptr @slurm_conf, i32 0, i32 42), align 8
  %28 = and i64 %27, 36028797018963968
  %29 = icmp ne i64 %28, 0
  br i1 %29, label %30, label %38

30:                                               ; preds = %26
  br label %31

31:                                               ; preds = %30
  %32 = call i32 @get_log_level()
  %33 = icmp sge i32 %32, 4
  br i1 %33, label %34, label %35

34:                                               ; preds = %31
  call void (i32, ptr, ...) @log_var(i32 noundef 4, ptr noundef @.str.17, ptr noundef @plugin_type, ptr noundef @__func__.common_cgroup_set_param)
  br label %35

35:                                               ; preds = %34, %31
  br label %36

36:                                               ; preds = %35
  br label %37

37:                                               ; preds = %36
  br label %38

38:                                               ; preds = %37, %26
  br label %39

39:                                               ; preds = %38
  br label %40

40:                                               ; preds = %39
  %41 = load i32, ptr %8, align 4
  store i32 %41, ptr %4, align 4
  store i32 1, ptr %11, align 4
  br label %110

42:                                               ; preds = %22
  %43 = getelementptr inbounds [4096 x i8], ptr %9, i64 0, i64 0
  %44 = load ptr, ptr %10, align 8
  %45 = load ptr, ptr %6, align 8
  %46 = call i32 (ptr, i64, ptr, ...) @snprintf(ptr noundef %43, i64 noundef 4096, ptr noundef @.str.18, ptr noundef %44, ptr noundef %45) #6
  %47 = icmp sge i32 %46, 4096
  br i1 %47, label %48, label %67

48:                                               ; preds = %42
  br label %49

49:                                               ; preds = %48
  %50 = load i64, ptr getelementptr inbounds nuw (%struct.slurm_conf_t, ptr @slurm_conf, i32 0, i32 42), align 8
  %51 = and i64 %50, 36028797018963968
  %52 = icmp ne i64 %51, 0
  br i1 %52, label %53, label %63

53:                                               ; preds = %49
  br label %54

54:                                               ; preds = %53
  %55 = call i32 @get_log_level()
  %56 = icmp sge i32 %55, 4
  br i1 %56, label %57, label %60

57:                                               ; preds = %54
  %58 = load ptr, ptr %10, align 8
  %59 = load ptr, ptr %6, align 8
  call void (i32, ptr, ...) @log_var(i32 noundef 4, ptr noundef @.str.19, ptr noundef @plugin_type, ptr noundef @__func__.common_cgroup_set_param, ptr noundef %58, ptr noundef %59)
  br label %60

60:                                               ; preds = %57, %54
  br label %61

61:                                               ; preds = %60
  br label %62

62:                                               ; preds = %61
  br label %63

63:                                               ; preds = %62, %49
  br label %64

64:                                               ; preds = %63
  br label %65

65:                                               ; preds = %64
  %66 = load i32, ptr %8, align 4
  store i32 %66, ptr %4, align 4
  store i32 1, ptr %11, align 4
  br label %110

67:                                               ; preds = %42
  %68 = getelementptr inbounds [4096 x i8], ptr %9, i64 0, i64 0
  %69 = load ptr, ptr %7, align 8
  %70 = load ptr, ptr %7, align 8
  %71 = call i64 @strlen(ptr noundef %70) #8
  %72 = call i32 @common_file_write_content(ptr noundef %68, ptr noundef %69, i64 noundef %71)
  store i32 %72, ptr %8, align 4
  %73 = load i32, ptr %8, align 4
  %74 = icmp ne i32 %73, 0
  br i1 %74, label %75, label %94

75:                                               ; preds = %67
  br label %76

76:                                               ; preds = %75
  %77 = load i64, ptr getelementptr inbounds nuw (%struct.slurm_conf_t, ptr @slurm_conf, i32 0, i32 42), align 8
  %78 = and i64 %77, 36028797018963968
  %79 = icmp ne i64 %78, 0
  br i1 %79, label %80, label %91

80:                                               ; preds = %76
  br label %81

81:                                               ; preds = %80
  %82 = call i32 @get_log_level()
  %83 = icmp sge i32 %82, 4
  br i1 %83, label %84, label %88

84:                                               ; preds = %81
  %85 = load ptr, ptr %6, align 8
  %86 = load ptr, ptr %7, align 8
  %87 = load ptr, ptr %10, align 8
  call void (i32, ptr, ...) @log_var(i32 noundef 4, ptr noundef @.str.20, ptr noundef @plugin_type, ptr noundef @__func__.common_cgroup_set_param, ptr noundef %85, ptr noundef %86, ptr noundef %87)
  br label %88

88:                                               ; preds = %84, %81
  br label %89

89:                                               ; preds = %88
  br label %90

90:                                               ; preds = %89
  br label %91

91:                                               ; preds = %90, %76
  br label %92

92:                                               ; preds = %91
  br label %93

93:                                               ; preds = %92
  br label %108

94:                                               ; preds = %67
  br label %95

95:                                               ; preds = %94
  br label %96

96:                                               ; preds = %95
  %97 = call i32 @get_log_level()
  %98 = icmp sge i32 %97, 7
  br i1 %98, label %99, label %103

99:                                               ; preds = %96
  %100 = load ptr, ptr %6, align 8
  %101 = load ptr, ptr %7, align 8
  %102 = load ptr, ptr %10, align 8
  call void (i32, ptr, ...) @log_var(i32 noundef 7, ptr noundef @.str.21, ptr noundef @plugin_type, ptr noundef @__func__.common_cgroup_set_param, ptr noundef @__func__.common_cgroup_set_param, ptr noundef %100, ptr noundef %101, ptr noundef %102)
  br label %103

103:                                              ; preds = %99, %96
  br label %104

104:                                              ; preds = %103
  br label %105

105:                                              ; preds = %104
  br label %106

106:                                              ; preds = %105
  br label %107

107:                                              ; preds = %106
  br label %108

108:                                              ; preds = %107, %93
  %109 = load i32, ptr %8, align 4
  store i32 %109, ptr %4, align 4
  store i32 1, ptr %11, align 4
  br label %110

110:                                              ; preds = %108, %65, %40, %20
  call void @llvm.lifetime.end.p0(i64 8, ptr %10) #6
  call void @llvm.lifetime.end.p0(i64 4096, ptr %9) #6
  call void @llvm.lifetime.end.p0(i64 4, ptr %8) #6
  %111 = load i32, ptr %4, align 4
  ret i32 %111
}