; Function Attrs: nounwind uwtable
define dso_local range(i32 -1, 1) i32 @common_cgroup_set_param(ptr noundef readonly captures(none) %0, ptr noundef %1, ptr noundef %2) local_unnamed_addr #0 {
  %4 = alloca [4096 x i8], align 16
  call void @llvm.lifetime.start.p0(i64 4096, ptr nonnull %4) #8
  %5 = getelementptr inbounds nuw i8, ptr %0, i64 16
  %6 = load ptr, ptr %5, align 8
  %7 = icmp ne ptr %6, null
  %8 = icmp ne ptr %1, null
  %or.cond = and i1 %8, %7
  br i1 %or.cond, label %9, label %41

9:                                                ; preds = %3
  %.not = icmp eq ptr %2, null
  br i1 %.not, label %10, label %17

10:                                               ; preds = %9
  %11 = load i64, ptr getelementptr inbounds nuw (i8, ptr @slurm_conf, i64 320), align 8
  %12 = and i64 %11, 36028797018963968
  %.not25 = icmp eq i64 %12, 0
  br i1 %.not25, label %41, label %13

13:                                               ; preds = %10
  %14 = tail call i32 @get_log_level() #8
  %15 = icmp sgt i32 %14, 3
  br i1 %15, label %16, label %41

16:                                               ; preds = %13
  tail call void (i32, ptr, ...) @log_var(i32 noundef 4, ptr noundef nonnull @.str.17, ptr noundef nonnull @plugin_type, ptr noundef nonnull @__func__.common_cgroup_set_param) #8
  br label %41

17:                                               ; preds = %9
  %18 = call i32 (ptr, i64, ptr, ...) @snprintf(ptr noundef nonnull dereferenceable(1) %4, i64 noundef 4096, ptr noundef nonnull @.str.18, ptr noundef nonnull %6, ptr noundef nonnull %1) #8
  %19 = icmp sgt i32 %18, 4095
  br i1 %19, label %20, label %27

20:                                               ; preds = %17
  %21 = load i64, ptr getelementptr inbounds nuw (i8, ptr @slurm_conf, i64 320), align 8
  %22 = and i64 %21, 36028797018963968
  %.not28 = icmp eq i64 %22, 0
  br i1 %.not28, label %41, label %23

23:                                               ; preds = %20
  %24 = tail call i32 @get_log_level() #8
  %25 = icmp sgt i32 %24, 3
  br i1 %25, label %26, label %41

26:                                               ; preds = %23
  tail call void (i32, ptr, ...) @log_var(i32 noundef 4, ptr noundef nonnull @.str.19, ptr noundef nonnull @plugin_type, ptr noundef nonnull @__func__.common_cgroup_set_param, ptr noundef nonnull %6, ptr noundef nonnull %1) #8
  br label %41

27:                                               ; preds = %17
  %28 = tail call i64 @strlen(ptr noundef nonnull dereferenceable(1) %2) #10
  %29 = call i32 @common_file_write_content(ptr noundef nonnull %4, ptr noundef nonnull %2, i64 noundef %28)
  %.not26 = icmp eq i32 %29, 0
  br i1 %.not26, label %37, label %30

30:                                               ; preds = %27
  %31 = load i64, ptr getelementptr inbounds nuw (i8, ptr @slurm_conf, i64 320), align 8
  %32 = and i64 %31, 36028797018963968
  %.not27 = icmp eq i64 %32, 0
  br i1 %.not27, label %41, label %33

33:                                               ; preds = %30
  %34 = call i32 @get_log_level() #8
  %35 = icmp sgt i32 %34, 3
  br i1 %35, label %36, label %41

36:                                               ; preds = %33
  call void (i32, ptr, ...) @log_var(i32 noundef 4, ptr noundef nonnull @.str.20, ptr noundef nonnull @plugin_type, ptr noundef nonnull @__func__.common_cgroup_set_param, ptr noundef nonnull %1, ptr noundef nonnull %2, ptr noundef nonnull %6) #8
  br label %41

37:                                               ; preds = %27
  %38 = call i32 @get_log_level() #8
  %39 = icmp sgt i32 %38, 6
  br i1 %39, label %40, label %41

40:                                               ; preds = %37
  call void (i32, ptr, ...) @log_var(i32 noundef 7, ptr noundef nonnull @.str.21, ptr noundef nonnull @plugin_type, ptr noundef nonnull @__func__.common_cgroup_set_param, ptr noundef nonnull @__func__.common_cgroup_set_param, ptr noundef nonnull %1, ptr noundef nonnull %2, ptr noundef nonnull %6) #8
  br label %41

41:                                               ; preds = %33, %36, %30, %40, %37, %20, %26, %23, %10, %16, %13, %3
  %.0 = phi i32 [ -1, %3 ], [ -1, %13 ], [ -1, %16 ], [ -1, %10 ], [ -1, %23 ], [ -1, %26 ], [ -1, %20 ], [ 0, %37 ], [ 0, %40 ], [ -1, %30 ], [ -1, %36 ], [ -1, %33 ]
  call void @llvm.lifetime.end.p0(i64 4096, ptr nonnull %4) #8
  ret i32 %.0
}